target datalayout = "e-m:e-p270:32:32-p271:32:32-p272:64:64-i64:64-i128:128-f80:128-n8:16:32:64-S128"
target triple = "x86_64-unknown-linux-gnu"

@_ZL14g_program_name = internal global ptr null, align 8
@.str.50 = private unnamed_addr constant [5 x i8] c"%s: \00", align 1
@stderr = external global ptr, align 8
@.str.51 = private unnamed_addr constant [17 x i8] c"\0Awarning:\0A  %s\0A\0A\00", align 1

; Function Attrs: mustprogress uwtable
define internal void @_ZL4WarnPKN11flatbuffers12FlatCompilerERKNSt7__cxx1112basic_stringIcSt11char_traitsIcESaIcEEEb(ptr noundef %flatc, ptr noundef nonnull align 8 dereferenceable(32) %warn, i1 noundef zeroext %show_exe_name) #0 {
entry:
  %flatc.addr = alloca ptr, align 8
  %warn.addr = alloca ptr, align 8
  %show_exe_name.addr = alloca i8, align 1
  store ptr %flatc, ptr %flatc.addr, align 8
  store ptr %warn, ptr %warn.addr, align 8
  %frombool = zext i1 %show_exe_name to i8
  store i8 %frombool, ptr %show_exe_name.addr, align 1
  %0 = load i8, ptr %show_exe_name.addr, align 1
  %tobool = trunc i8 %0 to i1
  br i1 %tobool, label %if.then, label %if.end

if.then:                                          ; preds = %entry
  %1 = load ptr, ptr @_ZL14g_program_name, align 8
  %call = call i32 (ptr, ...) @printf(ptr noundef @.str.50, ptr noundef %1)
  br label %if.end

if.end:                                           ; preds = %if.then, %entry
  %2 = load ptr, ptr @stderr, align 8
  %3 = load ptr, ptr %warn.addr, align 8
  %call1 = call noundef ptr @_ZNKSt7__cxx1112basic_stringIcSt11char_traitsIcESaIcEE5c_strEv(ptr noundef nonnull align 8 dereferenceable(32) %3) #12
  %call2 = call i32 (ptr, ptr, ...) @fprintf(ptr noundef %2, ptr noundef @.str.51, ptr noundef %call1)
  ret void
}