; Function Attrs: mustprogress nounwind uwtable
define internal void @_ZL4WarnPKN11flatbuffers12FlatCompilerERKNSt7__cxx1112basic_stringIcSt11char_traitsIcESaIcEEEb(ptr nocapture readnone %flatc, ptr noundef nonnull align 8 dereferenceable(32) %warn, i1 noundef zeroext %show_exe_name) #0 {
entry:
  br i1 %show_exe_name, label %if.then, label %if.end

if.then:                                          ; preds = %entry
  %0 = load ptr, ptr @_ZL14g_program_name, align 8
  %call = tail call i32 (ptr, ...) @printf(ptr noundef nonnull dereferenceable(1) @.str.50, ptr noundef %0)
  br label %if.end

if.end:                                           ; preds = %if.then, %entry
  %1 = load ptr, ptr @stderr, align 8
  %call1 = tail call noundef ptr @_ZNKSt7__cxx1112basic_stringIcSt11char_traitsIcESaIcEE5c_strEv(ptr noundef nonnull align 8 dereferenceable(32) %warn) #14
  %call2 = tail call i32 (ptr, ptr, ...) @fprintf(ptr noundef %1, ptr noundef nonnull @.str.51, ptr noundef %call1) #15
  ret void
}